target datalayout = "e-m:e-p270:32:32-p271:32:32-p272:64:64-i64:64-i128:128-f80:128-n8:16:32:64-S128"
target triple = "x86_64-pc-linux-gnu"

@.str.4 = private unnamed_addr constant [50 x i8] c"cli_strtok: Unable to allocate memory for buffer\0A\00", align 1

; Function Attrs: nounwind uwtable
define ptr @cli_strtok(ptr noundef %0, i32 noundef %1, ptr noundef %2) #0 {
  %4 = alloca ptr, align 8
  %5 = alloca ptr, align 8
  %6 = alloca i32, align 4
  %7 = alloca ptr, align 8
  %8 = alloca i32, align 4
  %9 = alloca i32, align 4
  %10 = alloca i32, align 4
  %11 = alloca ptr, align 8
  store ptr %0, ptr %5, align 8
  store i32 %1, ptr %6, align 4
  store ptr %2, ptr %7, align 8
  store i32 0, ptr %8, align 4
  store ptr null, ptr %11, align 8
  store i32 0, ptr %9, align 4
  br label %12

12:                                               ; preds = %66, %3
  %13 = load ptr, ptr %5, align 8
  %14 = load i32, ptr %9, align 4
  %15 = sext i32 %14 to i64
  %16 = getelementptr inbounds i8, ptr %13, i64 %15
  %17 = load i8, ptr %16, align 1
  %18 = sext i8 %17 to i32
  %19 = icmp ne i32 %18, 0
  br i1 %19, label %20, label %24

20:                                               ; preds = %12
  %21 = load i32, ptr %8, align 4
  %22 = load i32, ptr %6, align 4
  %23 = icmp ne i32 %21, %22
  br label %24

24:                                               ; preds = %20, %12
  %25 = phi i1 [ false, %12 ], [ %23, %20 ]
  br i1 %25, label %26, label %69

26:                                               ; preds = %24
  %27 = load ptr, ptr %7, align 8
  %28 = load ptr, ptr %5, align 8
  %29 = load i32, ptr %9, align 4
  %30 = sext i32 %29 to i64
  %31 = getelementptr inbounds i8, ptr %28, i64 %30
  %32 = load i8, ptr %31, align 1
  %33 = sext i8 %32 to i32
  %34 = call ptr @strchr(ptr noundef %27, i32 noundef %33) #7
  %35 = icmp ne ptr %34, null
  br i1 %35, label %36, label %65

36:                                               ; preds = %26
  %37 = load i32, ptr %8, align 4
  %38 = add nsw i32 %37, 1
  store i32 %38, ptr %8, align 4
  br label %39

39:                                               ; preds = %61, %36
  %40 = load ptr, ptr %5, align 8
  %41 = load i32, ptr %9, align 4
  %42 = add nsw i32 %41, 1
  %43 = sext i32 %42 to i64
  %44 = getelementptr inbounds i8, ptr %40, i64 %43
  %45 = load i8, ptr %44, align 1
  %46 = sext i8 %45 to i32
  %47 = icmp ne i32 %46, 0
  br i1 %47, label %48, label %59

48:                                               ; preds = %39
  %49 = load ptr, ptr %7, align 8
  %50 = load ptr, ptr %5, align 8
  %51 = load i32, ptr %9, align 4
  %52 = add nsw i32 %51, 1
  %53 = sext i32 %52 to i64
  %54 = getelementptr inbounds i8, ptr %50, i64 %53
  %55 = load i8, ptr %54, align 1
  %56 = sext i8 %55 to i32
  %57 = call ptr @strchr(ptr noundef %49, i32 noundef %56) #7
  %58 = icmp ne ptr %57, null
  br label %59

59:                                               ; preds = %48, %39
  %60 = phi i1 [ false, %39 ], [ %58, %48 ]
  br i1 %60, label %61, label %64

61:                                               ; preds = %59
  %62 = load i32, ptr %9, align 4
  %63 = add nsw i32 %62, 1
  store i32 %63, ptr %9, align 4
  br label %39

64:                                               ; preds = %59
  br label %65

65:                                               ; preds = %64, %26
  br label %66

66:                                               ; preds = %65
  %67 = load i32, ptr %9, align 4
  %68 = add nsw i32 %67, 1
  store i32 %68, ptr %9, align 4
  br label %12

69:                                               ; preds = %24
  %70 = load ptr, ptr %5, align 8
  %71 = load i32, ptr %9, align 4
  %72 = sext i32 %71 to i64
  %73 = getelementptr inbounds i8, ptr %70, i64 %72
  %74 = load i8, ptr %73, align 1
  %75 = icmp ne i8 %74, 0
  br i1 %75, label %77, label %76

76:                                               ; preds = %69
  store ptr null, ptr %4, align 8
  br label %134

77:                                               ; preds = %69
  %78 = load i32, ptr %9, align 4
  store i32 %78, ptr %10, align 4
  br label %79

79:                                               ; preds = %98, %77
  %80 = load ptr, ptr %5, align 8
  %81 = load i32, ptr %10, align 4
  %82 = sext i32 %81 to i64
  %83 = getelementptr inbounds i8, ptr %80, i64 %82
  %84 = load i8, ptr %83, align 1
  %85 = icmp ne i8 %84, 0
  br i1 %85, label %86, label %101

86:                                               ; preds = %79
  %87 = load ptr, ptr %7, align 8
  %88 = load ptr, ptr %5, align 8
  %89 = load i32, ptr %10, align 4
  %90 = sext i32 %89 to i64
  %91 = getelementptr inbounds i8, ptr %88, i64 %90
  %92 = load i8, ptr %91, align 1
  %93 = sext i8 %92 to i32
  %94 = call ptr @strchr(ptr noundef %87, i32 noundef %93) #7
  %95 = icmp ne ptr %94, null
  br i1 %95, label %96, label %97

96:                                               ; preds = %86
  br label %101

97:                                               ; preds = %86
  br label %98

98:                                               ; preds = %97
  %99 = load i32, ptr %10, align 4
  %100 = add nsw i32 %99, 1
  store i32 %100, ptr %10, align 4
  br label %79

101:                                              ; preds = %96, %79
  %102 = load i32, ptr %9, align 4
  %103 = load i32, ptr %10, align 4
  %104 = icmp eq i32 %102, %103
  br i1 %104, label %105, label %106

105:                                              ; preds = %101
  store ptr null, ptr %4, align 8
  br label %134

106:                                              ; preds = %101
  %107 = load i32, ptr %10, align 4
  %108 = load i32, ptr %9, align 4
  %109 = sub nsw i32 %107, %108
  %110 = add nsw i32 %109, 1
  %111 = sext i32 %110 to i64
  %112 = call ptr @cli_max_malloc(i64 noundef %111)
  store ptr %112, ptr %11, align 8
  %113 = load ptr, ptr %11, align 8
  %114 = icmp ne ptr %113, null
  br i1 %114, label %116, label %115

115:                                              ; preds = %106
  call void (ptr, ...) @cli_errmsg(ptr noundef @.str.4)
  store ptr null, ptr %4, align 8
  br label %134

116:                                              ; preds = %106
  %117 = load ptr, ptr %11, align 8
  %118 = load ptr, ptr %5, align 8
  %119 = load i32, ptr %9, align 4
  %120 = sext i32 %119 to i64
  %121 = getelementptr inbounds i8, ptr %118, i64 %120
  %122 = load i32, ptr %10, align 4
  %123 = load i32, ptr %9, align 4
  %124 = sub nsw i32 %122, %123
  %125 = sext i32 %124 to i64
  %126 = call ptr @strncpy(ptr noundef %117, ptr noundef %121, i64 noundef %125) #8
  %127 = load ptr, ptr %11, align 8
  %128 = load i32, ptr %10, align 4
  %129 = load i32, ptr %9, align 4
  %130 = sub nsw i32 %128, %129
  %131 = sext i32 %130 to i64
  %132 = getelementptr inbounds i8, ptr %127, i64 %131
  store i8 0, ptr %132, align 1
  %133 = load ptr, ptr %11, align 8
  store ptr %133, ptr %4, align 8
  br label %134

134:                                              ; preds = %116, %115, %105, %76
  %135 = load ptr, ptr %4, align 8
  ret ptr %135
}