; Function Attrs: nounwind uwtable
define ptr @cli_strtok(ptr nocapture noundef readonly %0, i32 noundef %1, ptr noundef readonly %2) local_unnamed_addr #1 {
  %4 = load i8, ptr %0, align 1
  %5 = icmp ne i8 %4, 0
  %6 = icmp ne i32 %1, 0
  %7 = and i1 %5, %6
  br i1 %7, label %.lr.ph, label %._crit_edge

.lr.ph:                                           ; preds = %3, %.critedge
  %8 = phi i8 [ %24, %.critedge ], [ %4, %3 ]
  %.03855 = phi i32 [ %21, %.critedge ], [ 0, %3 ]
  %.03954 = phi i32 [ %.140, %.critedge ], [ 0, %3 ]
  %9 = sext i8 %8 to i32
  %10 = tail call ptr @strchr(ptr noundef nonnull dereferenceable(1) %2, i32 noundef %9) #26
  %.not49 = icmp eq ptr %10, null
  br i1 %.not49, label %.critedge, label %11

11:                                               ; preds = %.lr.ph
  %12 = add nsw i32 %.03954, 1
  %13 = sext i32 %.03855 to i64
  br label %14

14:                                               ; preds = %17, %11
  %indvars.iv = phi i64 [ %indvars.iv.next, %17 ], [ %13, %11 ]
  %indvars.iv.next = add nsw i64 %indvars.iv, 1
  %15 = getelementptr inbounds i8, ptr %0, i64 %indvars.iv.next
  %16 = load i8, ptr %15, align 1
  %.not50 = icmp eq i8 %16, 0
  br i1 %.not50, label %.critedge.loopexit, label %17

17:                                               ; preds = %14
  %18 = sext i8 %16 to i32
  %19 = tail call ptr @strchr(ptr noundef nonnull dereferenceable(1) %2, i32 noundef %18) #26
  %.not51 = icmp eq ptr %19, null
  br i1 %.not51, label %.critedge.loopexit, label %14

.critedge.loopexit:                               ; preds = %17, %14
  %20 = trunc nsw i64 %indvars.iv to i32
  br label %.critedge

.critedge:                                        ; preds = %.critedge.loopexit, %.lr.ph
  %.140 = phi i32 [ %.03954, %.lr.ph ], [ %12, %.critedge.loopexit ]
  %.2 = phi i32 [ %.03855, %.lr.ph ], [ %20, %.critedge.loopexit ]
  %21 = add nsw i32 %.2, 1
  %22 = sext i32 %21 to i64
  %23 = getelementptr inbounds i8, ptr %0, i64 %22
  %24 = load i8, ptr %23, align 1
  %25 = icmp ne i8 %24, 0
  %26 = icmp ne i32 %.140, %1
  %27 = select i1 %25, i1 %26, i1 false
  br i1 %27, label %.lr.ph, label %._crit_edge

._crit_edge:                                      ; preds = %.critedge, %3
  %.lcssa53 = phi i64 [ 0, %3 ], [ %22, %.critedge ]
  %.038.lcssa = phi i32 [ 0, %3 ], [ %21, %.critedge ]
  %28 = phi i8 [ %4, %3 ], [ %24, %.critedge ]
  %29 = getelementptr inbounds i8, ptr %0, i64 %.lcssa53
  %.not = icmp eq i8 %28, 0
  br i1 %.not, label %50, label %.lr.ph60.preheader

.lr.ph60.preheader:                               ; preds = %._crit_edge
  %30 = sext i32 %.038.lcssa to i64
  br label %.lr.ph60

.lr.ph60:                                         ; preds = %.lr.ph60.preheader, %34
  %indvars.iv69 = phi i64 [ %30, %.lr.ph60.preheader ], [ %indvars.iv.next70, %34 ]
  %31 = phi i8 [ %28, %.lr.ph60.preheader ], [ %37, %34 ]
  %.059 = phi i32 [ %.038.lcssa, %.lr.ph60.preheader ], [ %35, %34 ]
  %32 = sext i8 %31 to i32
  %33 = tail call ptr @strchr(ptr noundef nonnull dereferenceable(1) %2, i32 noundef %32) #26
  %.not47 = icmp eq ptr %33, null
  br i1 %.not47, label %34, label %._crit_edge61.split.loop.exit74

34:                                               ; preds = %.lr.ph60
  %indvars.iv.next70 = add nsw i64 %indvars.iv69, 1
  %35 = add nsw i32 %.059, 1
  %36 = getelementptr inbounds i8, ptr %0, i64 %indvars.iv.next70
  %37 = load i8, ptr %36, align 1
  %.not46 = icmp eq i8 %37, 0
  br i1 %.not46, label %._crit_edge61, label %.lr.ph60

._crit_edge61.split.loop.exit74:                  ; preds = %.lr.ph60
  %38 = trunc nsw i64 %indvars.iv69 to i32
  br label %._crit_edge61

._crit_edge61:                                    ; preds = %34, %._crit_edge61.split.loop.exit74
  %.0.lcssa.ph = phi i32 [ %38, %._crit_edge61.split.loop.exit74 ], [ %35, %34 ]
  %39 = icmp eq i32 %.038.lcssa, %.0.lcssa.ph
  br i1 %39, label %50, label %40

40:                                               ; preds = %._crit_edge61
  %41 = sub nsw i32 %.0.lcssa.ph, %.038.lcssa
  %42 = add nsw i32 %41, 1
  %43 = sext i32 %42 to i64
  %44 = tail call ptr @cli_max_malloc(i64 noundef %43) #27
  %.not48 = icmp eq ptr %44, null
  br i1 %.not48, label %45, label %46

45:                                               ; preds = %40
  tail call void (ptr, ...) @cli_errmsg(ptr noundef nonnull @.str.4) #27
  br label %50

46:                                               ; preds = %40
  %47 = sext i32 %41 to i64
  %48 = tail call ptr @strncpy(ptr noundef nonnull %44, ptr noundef nonnull %29, i64 noundef %47) #27
  %49 = getelementptr inbounds i8, ptr %44, i64 %47
  store i8 0, ptr %49, align 1
  br label %50

50:                                               ; preds = %._crit_edge61, %._crit_edge, %46, %45
  %.041 = phi ptr [ %44, %46 ], [ null, %45 ], [ null, %._crit_edge ], [ null, %._crit_edge61 ]
  ret ptr %.041
}